target datalayout = "e-m:e-p270:32:32-p271:32:32-p272:64:64-i64:64-i128:128-f80:128-n8:16:32:64-S128"
target triple = "x86_64-pc-linux-gnu"

%struct.TupleDescData = type { i32, i32, i32, i32, ptr, [0 x %struct.CompactAttribute] }
%struct.CompactAttribute = type { i32, i16, i8, i8, i8, i8, i8, i8, i8 }
%struct.ExpandedRecordHeader = type { %struct.ExpandedObjectHeader, i32, i32, i32, i32, i32, ptr, i64, ptr, ptr, i32, i64, i64, i32, i8, ptr, ptr, ptr, ptr, ptr, ptr, %struct.MemoryContextCallback }
%struct.ExpandedObjectHeader = type { i32, ptr, ptr, [10 x i8], [10 x i8] }
%struct.MemoryContextCallback = type { ptr, ptr, ptr }
%struct.HeapTupleData = type { i32, %struct.ItemPointerData, i32, ptr }
%struct.ItemPointerData = type { %struct.BlockIdData, i16 }
%struct.BlockIdData = type { i16, i16 }
%struct.HeapTupleHeaderData = type { %union.anon, %struct.ItemPointerData, i16, i16, i8, [0 x i8] }
%union.anon = type { %struct.HeapTupleFields }
%struct.HeapTupleFields = type { i32, i32, %union.anon.0 }
%union.anon.0 = type { i32 }
%struct.anon = type { i32, [0 x i8] }
%struct.DatumTupleFields = type { i32, i32, i32 }

; Function Attrs: inlinehint nounwind uwtable
define internal void @BlockIdSet(ptr noundef %0, i32 noundef %1) #5 {
  %3 = alloca ptr, align 8
  %4 = alloca i32, align 4
  store ptr %0, ptr %3, align 8
  store i32 %1, ptr %4, align 4
  %5 = load i32, ptr %4, align 4
  %6 = lshr i32 %5, 16
  %7 = trunc i32 %6 to i16
  %8 = load ptr, ptr %3, align 8
  %9 = getelementptr inbounds nuw %struct.BlockIdData, ptr %8, i32 0, i32 0
  store i16 %7, ptr %9, align 2
  %10 = load i32, ptr %4, align 4
  %11 = and i32 %10, 65535
  %12 = trunc i32 %11 to i16
  %13 = load ptr, ptr %3, align 8
  %14 = getelementptr inbounds nuw %struct.BlockIdData, ptr %13, i32 0, i32 1
  store i16 %12, ptr %14, align 2
  ret void
}

; Function Attrs: inlinehint nounwind uwtable
define internal void @ItemPointerSetInvalid(ptr noundef %0) #5 {
  %2 = alloca ptr, align 8
  store ptr %0, ptr %2, align 8
  %3 = load ptr, ptr %2, align 8
  %4 = getelementptr inbounds nuw %struct.ItemPointerData, ptr %3, i32 0, i32 0
  call void @BlockIdSet(ptr noundef %4, i32 noundef -1)
  %5 = load ptr, ptr %2, align 8
  %6 = getelementptr inbounds nuw %struct.ItemPointerData, ptr %5, i32 0, i32 1
  store i16 0, ptr %6, align 2
  ret void
}

; Function Attrs: inlinehint nounwind uwtable
define internal ptr @expanded_record_get_tupdesc(ptr noundef %0) #5 {
  %2 = alloca ptr, align 8
  %3 = alloca ptr, align 8
  store ptr %0, ptr %3, align 8
  %4 = load ptr, ptr %3, align 8
  %5 = getelementptr inbounds nuw %struct.ExpandedRecordHeader, ptr %4, i32 0, i32 6
  %6 = load ptr, ptr %5, align 8
  %7 = icmp ne ptr %6, null
  %8 = zext i1 %7 to i32
  %9 = icmp ne i32 %8, 0
  %10 = zext i1 %9 to i32
  %11 = sext i32 %10 to i64
  %12 = call i64 @llvm.expect.i64(i64 %11, i64 1)
  %13 = icmp ne i64 %12, 0
  br i1 %13, label %14, label %18

14:                                               ; preds = %1
  %15 = load ptr, ptr %3, align 8
  %16 = getelementptr inbounds nuw %struct.ExpandedRecordHeader, ptr %15, i32 0, i32 6
  %17 = load ptr, ptr %16, align 8
  store ptr %17, ptr %2, align 8
  br label %21

18:                                               ; preds = %1
  %19 = load ptr, ptr %3, align 8
  %20 = call ptr @expanded_record_fetch_tupdesc(ptr noundef %19)
  store ptr %20, ptr %2, align 8
  br label %21

21:                                               ; preds = %18, %14
  %22 = load ptr, ptr %2, align 8
  ret ptr %22
}

; Function Attrs: inlinehint nounwind uwtable
define internal void @HeapTupleHeaderSetTypMod(ptr noundef %0, i32 noundef %1) #5 {
  %3 = alloca ptr, align 8
  %4 = alloca i32, align 4
  store ptr %0, ptr %3, align 8
  store i32 %1, ptr %4, align 4
  %5 = load i32, ptr %4, align 4
  %6 = load ptr, ptr %3, align 8
  %7 = getelementptr inbounds nuw %struct.HeapTupleHeaderData, ptr %6, i32 0, i32 0
  %8 = getelementptr inbounds nuw %struct.DatumTupleFields, ptr %7, i32 0, i32 1
  store i32 %5, ptr %8, align 4
  ret void
}

; Function Attrs: inlinehint nounwind uwtable
define internal void @HeapTupleHeaderSetTypeId(ptr noundef %0, i32 noundef %1) #5 {
  %3 = alloca ptr, align 8
  %4 = alloca i32, align 4
  store ptr %0, ptr %3, align 8
  store i32 %1, ptr %4, align 4
  %5 = load i32, ptr %4, align 4
  %6 = load ptr, ptr %3, align 8
  %7 = getelementptr inbounds nuw %struct.HeapTupleHeaderData, ptr %6, i32 0, i32 0
  %8 = getelementptr inbounds nuw %struct.DatumTupleFields, ptr %7, i32 0, i32 2
  store i32 %5, ptr %8, align 4
  ret void
}

; Function Attrs: inlinehint nounwind uwtable
define internal void @HeapTupleHeaderSetDatumLength(ptr noundef %0, i32 noundef %1) #5 {
  %3 = alloca ptr, align 8
  %4 = alloca i32, align 4
  store ptr %0, ptr %3, align 8
  store i32 %1, ptr %4, align 4
  %5 = load i32, ptr %4, align 4
  %6 = shl i32 %5, 2
  %7 = load ptr, ptr %3, align 8
  %8 = getelementptr inbounds nuw %struct.anon, ptr %7, i32 0, i32 0
  store i32 %6, ptr %8, align 4
  ret void
}

; Function Attrs: nounwind uwtable
define internal void @ER_flatten_into(ptr noundef %0, ptr noundef %1, i64 noundef %2) #0 {
  %4 = alloca ptr, align 8
  %5 = alloca ptr, align 8
  %6 = alloca i64, align 8
  %7 = alloca ptr, align 8
  %8 = alloca ptr, align 8
  %9 = alloca ptr, align 8
  %10 = alloca i32, align 4
  store ptr %0, ptr %4, align 8
  store ptr %1, ptr %5, align 8
  store i64 %2, ptr %6, align 8
  call void @llvm.lifetime.start.p0(i64 8, ptr %7) #9
  %11 = load ptr, ptr %4, align 8
  store ptr %11, ptr %7, align 8
  call void @llvm.lifetime.start.p0(i64 8, ptr %8) #9
  %12 = load ptr, ptr %5, align 8
  store ptr %12, ptr %8, align 8
  call void @llvm.lifetime.start.p0(i64 8, ptr %9) #9
  %13 = load ptr, ptr %7, align 8
  %14 = getelementptr inbounds nuw %struct.ExpandedRecordHeader, ptr %13, i32 0, i32 2
  %15 = load i32, ptr %14, align 4
  %16 = and i32 %15, 1
  %17 = icmp ne i32 %16, 0
  br i1 %17, label %18, label %43

18:                                               ; preds = %3
  %19 = load ptr, ptr %7, align 8
  %20 = getelementptr inbounds nuw %struct.ExpandedRecordHeader, ptr %19, i32 0, i32 2
  %21 = load i32, ptr %20, align 4
  %22 = and i32 %21, 16
  %23 = icmp ne i32 %22, 0
  br i1 %23, label %43, label %24

24:                                               ; preds = %18
  %25 = load ptr, ptr %8, align 8
  %26 = load ptr, ptr %7, align 8
  %27 = getelementptr inbounds nuw %struct.ExpandedRecordHeader, ptr %26, i32 0, i32 15
  %28 = load ptr, ptr %27, align 8
  %29 = getelementptr inbounds nuw %struct.HeapTupleData, ptr %28, i32 0, i32 3
  %30 = load ptr, ptr %29, align 8
  %31 = load i64, ptr %6, align 8
  call void @llvm.memcpy.p0.p0.i64(ptr align 4 %25, ptr align 4 %30, i64 %31, i1 false)
  %32 = load ptr, ptr %8, align 8
  %33 = load i64, ptr %6, align 8
  %34 = trunc i64 %33 to i32
  call void @HeapTupleHeaderSetDatumLength(ptr noundef %32, i32 noundef %34)
  %35 = load ptr, ptr %8, align 8
  %36 = load ptr, ptr %7, align 8
  %37 = getelementptr inbounds nuw %struct.ExpandedRecordHeader, ptr %36, i32 0, i32 4
  %38 = load i32, ptr %37, align 4
  call void @HeapTupleHeaderSetTypeId(ptr noundef %35, i32 noundef %38)
  %39 = load ptr, ptr %8, align 8
  %40 = load ptr, ptr %7, align 8
  %41 = getelementptr inbounds nuw %struct.ExpandedRecordHeader, ptr %40, i32 0, i32 5
  %42 = load i32, ptr %41, align 8
  call void @HeapTupleHeaderSetTypMod(ptr noundef %39, i32 noundef %42)
  store i32 1, ptr %10, align 4
  br label %108

43:                                               ; preds = %18, %3
  %44 = load ptr, ptr %7, align 8
  %45 = call ptr @expanded_record_get_tupdesc(ptr noundef %44)
  store ptr %45, ptr %9, align 8
  %46 = load ptr, ptr %8, align 8
  %47 = load i64, ptr %6, align 8
  call void @llvm.memset.p0.i64(ptr align 4 %46, i8 0, i64 %47, i1 false)
  %48 = load ptr, ptr %8, align 8
  %49 = load i64, ptr %6, align 8
  %50 = trunc i64 %49 to i32
  call void @HeapTupleHeaderSetDatumLength(ptr noundef %48, i32 noundef %50)
  %51 = load ptr, ptr %8, align 8
  %52 = load ptr, ptr %7, align 8
  %53 = getelementptr inbounds nuw %struct.ExpandedRecordHeader, ptr %52, i32 0, i32 4
  %54 = load i32, ptr %53, align 4
  call void @HeapTupleHeaderSetTypeId(ptr noundef %51, i32 noundef %54)
  %55 = load ptr, ptr %8, align 8
  %56 = load ptr, ptr %7, align 8
  %57 = getelementptr inbounds nuw %struct.ExpandedRecordHeader, ptr %56, i32 0, i32 5
  %58 = load i32, ptr %57, align 8
  call void @HeapTupleHeaderSetTypMod(ptr noundef %55, i32 noundef %58)
  %59 = load ptr, ptr %8, align 8
  %60 = getelementptr inbounds nuw %struct.HeapTupleHeaderData, ptr %59, i32 0, i32 1
  call void @ItemPointerSetInvalid(ptr noundef %60)
  %61 = load ptr, ptr %8, align 8
  %62 = getelementptr inbounds nuw %struct.HeapTupleHeaderData, ptr %61, i32 0, i32 2
  %63 = load i16, ptr %62, align 2
  %64 = zext i16 %63 to i32
  %65 = and i32 %64, -2048
  %66 = load ptr, ptr %9, align 8
  %67 = getelementptr inbounds nuw %struct.TupleDescData, ptr %66, i32 0, i32 0
  %68 = load i32, ptr %67, align 8
  %69 = or i32 %65, %68
  %70 = trunc i32 %69 to i16
  %71 = load ptr, ptr %8, align 8
  %72 = getelementptr inbounds nuw %struct.HeapTupleHeaderData, ptr %71, i32 0, i32 2
  store i16 %70, ptr %72, align 2
  %73 = load ptr, ptr %7, align 8
  %74 = getelementptr inbounds nuw %struct.ExpandedRecordHeader, ptr %73, i32 0, i32 13
  %75 = load i32, ptr %74, align 8
  %76 = trunc i32 %75 to i8
  %77 = load ptr, ptr %8, align 8
  %78 = getelementptr inbounds nuw %struct.HeapTupleHeaderData, ptr %77, i32 0, i32 4
  store i8 %76, ptr %78, align 2
  %79 = load ptr, ptr %9, align 8
  %80 = load ptr, ptr %7, align 8
  %81 = getelementptr inbounds nuw %struct.ExpandedRecordHeader, ptr %80, i32 0, i32 8
  %82 = load ptr, ptr %81, align 8
  %83 = load ptr, ptr %7, align 8
  %84 = getelementptr inbounds nuw %struct.ExpandedRecordHeader, ptr %83, i32 0, i32 9
  %85 = load ptr, ptr %84, align 8
  %86 = load ptr, ptr %8, align 8
  %87 = load ptr, ptr %7, align 8
  %88 = getelementptr inbounds nuw %struct.ExpandedRecordHeader, ptr %87, i32 0, i32 13
  %89 = load i32, ptr %88, align 8
  %90 = sext i32 %89 to i64
  %91 = getelementptr inbounds i8, ptr %86, i64 %90
  %92 = load ptr, ptr %7, align 8
  %93 = getelementptr inbounds nuw %struct.ExpandedRecordHeader, ptr %92, i32 0, i32 12
  %94 = load i64, ptr %93, align 8
  %95 = load ptr, ptr %8, align 8
  %96 = getelementptr inbounds nuw %struct.HeapTupleHeaderData, ptr %95, i32 0, i32 3
  %97 = load ptr, ptr %7, align 8
  %98 = getelementptr inbounds nuw %struct.ExpandedRecordHeader, ptr %97, i32 0, i32 14
  %99 = load i8, ptr %98, align 4, !range !4, !noundef !5
  %100 = trunc i8 %99 to i1
  br i1 %100, label %101, label %105

101:                                              ; preds = %43
  %102 = load ptr, ptr %8, align 8
  %103 = getelementptr inbounds nuw %struct.HeapTupleHeaderData, ptr %102, i32 0, i32 5
  %104 = getelementptr inbounds [0 x i8], ptr %103, i64 0, i64 0
  br label %106

105:                                              ; preds = %43
  br label %106

106:                                              ; preds = %105, %101
  %107 = phi ptr [ %104, %101 ], [ null, %105 ]
  call void @heap_fill_tuple(ptr noundef %79, ptr noundef %82, ptr noundef %85, ptr noundef %91, i64 noundef %94, ptr noundef %96, ptr noundef %107)
  store i32 0, ptr %10, align 4
  br label %108

108:                                              ; preds = %106, %24
  call void @llvm.lifetime.end.p0(i64 8, ptr %9) #9
  call void @llvm.lifetime.end.p0(i64 8, ptr %8) #9
  call void @llvm.lifetime.end.p0(i64 8, ptr %7) #9
  %109 = load i32, ptr %10, align 4
  switch i32 %109, label %111 [
    i32 0, label %110
    i32 1, label %110
  ]

110:                                              ; preds = %108, %108
  ret void

111:                                              ; preds = %108
  unreachable
}