; Function Attrs: nounwind uwtable
define internal void @ER_flatten_into(ptr noundef %0, ptr noundef initializes((0, 12)) %1, i64 noundef %2) #0 {
  %4 = getelementptr inbounds nuw i8, ptr %0, i64 52
  %5 = load i32, ptr %4, align 4
  %6 = and i32 %5, 17
  %or.cond = icmp eq i32 %6, 1
  br i1 %or.cond, label %7, label %20

7:                                                ; preds = %3
  %8 = getelementptr inbounds nuw i8, ptr %0, i64 136
  %9 = load ptr, ptr %8, align 8
  %10 = getelementptr inbounds nuw i8, ptr %9, i64 16
  %11 = load ptr, ptr %10, align 8
  tail call void @llvm.memcpy.p0.p0.i64(ptr align 4 %1, ptr align 4 %11, i64 %2, i1 false)
  %12 = trunc i64 %2 to i32
  %13 = shl i32 %12, 2
  store i32 %13, ptr %1, align 4
  %14 = getelementptr inbounds nuw i8, ptr %0, i64 60
  %15 = load i32, ptr %14, align 4
  %16 = getelementptr inbounds nuw i8, ptr %1, i64 8
  store i32 %15, ptr %16, align 4
  %17 = getelementptr inbounds nuw i8, ptr %0, i64 64
  %18 = load i32, ptr %17, align 8
  %19 = getelementptr inbounds nuw i8, ptr %1, i64 4
  store i32 %18, ptr %19, align 4
  br label %61

20:                                               ; preds = %3
  %21 = getelementptr inbounds nuw i8, ptr %0, i64 72
  %22 = load ptr, ptr %21, align 8
  %.not.i = icmp eq ptr %22, null
  br i1 %.not.i, label %23, label %expanded_record_get_tupdesc.exit, !prof !4

23:                                               ; preds = %20
  %24 = tail call ptr @expanded_record_fetch_tupdesc(ptr noundef nonnull %0)
  br label %expanded_record_get_tupdesc.exit

expanded_record_get_tupdesc.exit:                 ; preds = %20, %23
  %.0.i = phi ptr [ %24, %23 ], [ %22, %20 ]
  tail call void @llvm.memset.p0.i64(ptr align 4 %1, i8 0, i64 %2, i1 false)
  %25 = trunc i64 %2 to i32
  %26 = shl i32 %25, 2
  store i32 %26, ptr %1, align 4
  %27 = getelementptr inbounds nuw i8, ptr %0, i64 60
  %28 = load i32, ptr %27, align 4
  %29 = getelementptr inbounds nuw i8, ptr %1, i64 8
  store i32 %28, ptr %29, align 4
  %30 = getelementptr inbounds nuw i8, ptr %0, i64 64
  %31 = load i32, ptr %30, align 8
  %32 = getelementptr inbounds nuw i8, ptr %1, i64 4
  store i32 %31, ptr %32, align 4
  %33 = getelementptr inbounds nuw i8, ptr %1, i64 12
  store i16 -1, ptr %33, align 2
  %34 = getelementptr inbounds nuw i8, ptr %1, i64 14
  store i16 -1, ptr %34, align 2
  %35 = getelementptr inbounds nuw i8, ptr %1, i64 16
  store i16 0, ptr %35, align 2
  %36 = getelementptr inbounds nuw i8, ptr %1, i64 18
  %37 = load i16, ptr %36, align 2
  %38 = and i16 %37, -2048
  %39 = load i32, ptr %.0.i, align 8
  %40 = trunc i32 %39 to i16
  %41 = or i16 %38, %40
  store i16 %41, ptr %36, align 2
  %42 = getelementptr inbounds nuw i8, ptr %0, i64 128
  %43 = load i32, ptr %42, align 8
  %44 = trunc i32 %43 to i8
  %45 = getelementptr inbounds nuw i8, ptr %1, i64 22
  store i8 %44, ptr %45, align 2
  %46 = getelementptr inbounds nuw i8, ptr %0, i64 88
  %47 = load ptr, ptr %46, align 8
  %48 = getelementptr inbounds nuw i8, ptr %0, i64 96
  %49 = load ptr, ptr %48, align 8
  %50 = load i32, ptr %42, align 8
  %51 = sext i32 %50 to i64
  %52 = getelementptr inbounds i8, ptr %1, i64 %51
  %53 = getelementptr inbounds nuw i8, ptr %0, i64 120
  %54 = load i64, ptr %53, align 8
  %55 = getelementptr inbounds nuw i8, ptr %1, i64 20
  %56 = getelementptr inbounds nuw i8, ptr %0, i64 132
  %57 = load i8, ptr %56, align 4, !range !5, !noundef !6
  %58 = trunc nuw i8 %57 to i1
  %59 = getelementptr inbounds nuw i8, ptr %1, i64 23
  %60 = select i1 %58, ptr %59, ptr null
  tail call void @heap_fill_tuple(ptr noundef nonnull %.0.i, ptr noundef %47, ptr noundef %49, ptr noundef nonnull %52, i64 noundef %54, ptr noundef nonnull %55, ptr noundef %60) #8
  br label %61

61:                                               ; preds = %expanded_record_get_tupdesc.exit, %7
  ret void
}